target datalayout = "e-m:e-p270:32:32-p271:32:32-p272:64:64-i64:64-i128:128-f80:128-n8:16:32:64-S128"
target triple = "x86_64-pc-linux-gnu"

%struct.stbte_tilemap = type { [200 x [200 x [8 x i16]]], [200 x [200 x [1 x float]]], i32, i32, i32, i32, i32, i32, i32, i32, i32, i32, i32, i32, [100 x ptr], i32, i32, ptr, i32, i32, i32, i8, i8, i8, i8, i32, i32, i32, [8 x %struct.stbte__layer], i32, i32, i32, i32, i32, i32, i32, i32, i16, [4096 x i8], ptr }
%struct.stbte__layer = type { ptr, i32, i32 }

; Function Attrs: nounwind uwtable
define void @stbte__clear_stack(ptr noundef %0, ptr noundef %1) #0 {
  %3 = alloca ptr, align 8
  %4 = alloca ptr, align 8
  %5 = alloca i32, align 4
  store ptr %0, ptr %3, align 8, !tbaa !25
  store ptr %1, ptr %4, align 8, !tbaa !97
  call void @llvm.lifetime.start.p0(i64 4, ptr %5) #8
  %6 = load ptr, ptr %3, align 8, !tbaa !25
  %7 = getelementptr inbounds nuw %struct.stbte_tilemap, ptr %6, i32 0, i32 13
  %8 = load i32, ptr %7, align 4, !tbaa !147
  store i32 %8, ptr %5, align 4, !tbaa !13
  %9 = load ptr, ptr %3, align 8, !tbaa !25
  %10 = getelementptr inbounds nuw %struct.stbte_tilemap, ptr %9, i32 0, i32 33
  %11 = load i32, ptr %10, align 8, !tbaa !42
  %12 = icmp sge i32 %11, 0
  br i1 %12, label %13, label %17

13:                                               ; preds = %2
  %14 = load ptr, ptr %3, align 8, !tbaa !25
  %15 = getelementptr inbounds nuw %struct.stbte_tilemap, ptr %14, i32 0, i32 33
  %16 = load i32, ptr %15, align 8, !tbaa !42
  store i32 %16, ptr %5, align 4, !tbaa !13
  br label %17

17:                                               ; preds = %13, %2
  %18 = load i32, ptr %5, align 4, !tbaa !13
  %19 = icmp sge i32 %18, 0
  br i1 %19, label %20, label %36

20:                                               ; preds = %17
  %21 = load i32, ptr %5, align 4, !tbaa !13
  %22 = icmp eq i32 %21, 0
  br i1 %22, label %23, label %28

23:                                               ; preds = %20
  %24 = load ptr, ptr %3, align 8, !tbaa !25
  %25 = getelementptr inbounds nuw %struct.stbte_tilemap, ptr %24, i32 0, i32 37
  %26 = load i16, ptr %25, align 8, !tbaa !57
  %27 = sext i16 %26 to i32
  br label %29

28:                                               ; preds = %20
  br label %29

29:                                               ; preds = %28, %23
  %30 = phi i32 [ %27, %23 ], [ -1, %28 ]
  %31 = trunc i32 %30 to i16
  %32 = load ptr, ptr %4, align 8, !tbaa !97
  %33 = load i32, ptr %5, align 4, !tbaa !13
  %34 = sext i32 %33 to i64
  %35 = getelementptr inbounds i16, ptr %32, i64 %34
  store i16 %31, ptr %35, align 2, !tbaa !22
  br label %82

36:                                               ; preds = %17
  store i32 0, ptr %5, align 4, !tbaa !13
  br label %37

37:                                               ; preds = %78, %36
  %38 = load i32, ptr %5, align 4, !tbaa !13
  %39 = load ptr, ptr %3, align 8, !tbaa !25
  %40 = getelementptr inbounds nuw %struct.stbte_tilemap, ptr %39, i32 0, i32 4
  %41 = load i32, ptr %40, align 8, !tbaa !30
  %42 = icmp slt i32 %38, %41
  br i1 %42, label %43, label %81

43:                                               ; preds = %37
  %44 = load ptr, ptr %3, align 8, !tbaa !25
  %45 = getelementptr inbounds nuw %struct.stbte_tilemap, ptr %44, i32 0, i32 28
  %46 = load i32, ptr %5, align 4, !tbaa !13
  %47 = sext i32 %46 to i64
  %48 = getelementptr inbounds [8 x %struct.stbte__layer], ptr %45, i64 0, i64 %47
  %49 = getelementptr inbounds nuw %struct.stbte__layer, ptr %48, i32 0, i32 2
  %50 = load i32, ptr %49, align 4, !tbaa !52
  %51 = icmp ne i32 %50, 0
  br i1 %51, label %77, label %52

52:                                               ; preds = %43
  %53 = load ptr, ptr %3, align 8, !tbaa !25
  %54 = getelementptr inbounds nuw %struct.stbte_tilemap, ptr %53, i32 0, i32 28
  %55 = load i32, ptr %5, align 4, !tbaa !13
  %56 = sext i32 %55 to i64
  %57 = getelementptr inbounds [8 x %struct.stbte__layer], ptr %54, i64 0, i64 %56
  %58 = getelementptr inbounds nuw %struct.stbte__layer, ptr %57, i32 0, i32 1
  %59 = load i32, ptr %58, align 8, !tbaa !54
  %60 = icmp eq i32 %59, 0
  br i1 %60, label %61, label %77

61:                                               ; preds = %52
  %62 = load i32, ptr %5, align 4, !tbaa !13
  %63 = icmp eq i32 %62, 0
  br i1 %63, label %64, label %69

64:                                               ; preds = %61
  %65 = load ptr, ptr %3, align 8, !tbaa !25
  %66 = getelementptr inbounds nuw %struct.stbte_tilemap, ptr %65, i32 0, i32 37
  %67 = load i16, ptr %66, align 8, !tbaa !57
  %68 = sext i16 %67 to i32
  br label %70

69:                                               ; preds = %61
  br label %70

70:                                               ; preds = %69, %64
  %71 = phi i32 [ %68, %64 ], [ -1, %69 ]
  %72 = trunc i32 %71 to i16
  %73 = load ptr, ptr %4, align 8, !tbaa !97
  %74 = load i32, ptr %5, align 4, !tbaa !13
  %75 = sext i32 %74 to i64
  %76 = getelementptr inbounds i16, ptr %73, i64 %75
  store i16 %72, ptr %76, align 2, !tbaa !22
  br label %77

77:                                               ; preds = %70, %52, %43
  br label %78

78:                                               ; preds = %77
  %79 = load i32, ptr %5, align 4, !tbaa !13
  %80 = add nsw i32 %79, 1
  store i32 %80, ptr %5, align 4, !tbaa !13
  br label %37, !llvm.loop !161

81:                                               ; preds = %37
  br label %82

82:                                               ; preds = %81, %29
  call void @llvm.lifetime.end.p0(i64 4, ptr %5) #8
  ret void
}