; Function Attrs: nofree norecurse nosync nounwind memory(argmem: readwrite) uwtable
define void @stbte__clear_stack(ptr noundef readonly captures(none) %0, ptr noundef writeonly captures(none) %1) local_unnamed_addr #4 {
  %3 = getelementptr inbounds nuw i8, ptr %0, i64 800044
  %4 = load i32, ptr %3, align 4, !tbaa !130
  %5 = getelementptr inbounds nuw i8, ptr %0, i64 801040
  %6 = load i32, ptr %5, align 8, !tbaa !40
  %7 = icmp slt i32 %6, 0
  %spec.select = select i1 %7, i32 %4, i32 %6
  %8 = icmp sgt i32 %spec.select, -1
  br i1 %8, label %14, label %.preheader

.preheader:                                       ; preds = %2
  %9 = getelementptr inbounds nuw i8, ptr %0, i64 800008
  %10 = load i32, ptr %9, align 8, !tbaa !28
  %11 = icmp sgt i32 %10, 0
  br i1 %11, label %.lr.ph, label %.loopexit

.lr.ph:                                           ; preds = %.preheader
  %12 = getelementptr inbounds nuw i8, ptr %0, i64 800896
  %13 = getelementptr inbounds nuw i8, ptr %0, i64 801056
  %wide.trip.count = zext nneg i32 %10 to i64
  br label %23

14:                                               ; preds = %2
  %15 = icmp eq i32 %spec.select, 0
  br i1 %15, label %16, label %19

16:                                               ; preds = %14
  %17 = getelementptr inbounds nuw i8, ptr %0, i64 801056
  %18 = load i16, ptr %17, align 8, !tbaa !46
  br label %19

19:                                               ; preds = %14, %16
  %20 = phi i16 [ %18, %16 ], [ -1, %14 ]
  %21 = zext nneg i32 %spec.select to i64
  %22 = getelementptr inbounds nuw i16, ptr %1, i64 %21
  store i16 %20, ptr %22, align 2, !tbaa !21
  br label %.loopexit

23:                                               ; preds = %.lr.ph, %38
  %indvars.iv = phi i64 [ 0, %.lr.ph ], [ %indvars.iv.next, %38 ]
  %24 = getelementptr inbounds nuw [8 x %struct.stbte__layer], ptr %12, i64 0, i64 %indvars.iv
  %25 = getelementptr inbounds nuw i8, ptr %24, i64 12
  %26 = load i32, ptr %25, align 4, !tbaa !131
  %.not = icmp eq i32 %26, 0
  br i1 %.not, label %27, label %38

27:                                               ; preds = %23
  %28 = getelementptr inbounds nuw i8, ptr %24, i64 8
  %29 = load i32, ptr %28, align 8, !tbaa !132
  %30 = icmp eq i32 %29, 0
  br i1 %30, label %31, label %38

31:                                               ; preds = %27
  %32 = icmp eq i64 %indvars.iv, 0
  br i1 %32, label %33, label %35

33:                                               ; preds = %31
  %34 = load i16, ptr %13, align 8, !tbaa !46
  br label %35

35:                                               ; preds = %31, %33
  %36 = phi i16 [ %34, %33 ], [ -1, %31 ]
  %37 = getelementptr inbounds nuw i16, ptr %1, i64 %indvars.iv
  store i16 %36, ptr %37, align 2, !tbaa !21
  br label %38

38:                                               ; preds = %23, %27, %35
  %indvars.iv.next = add nuw nsw i64 %indvars.iv, 1
  %exitcond.not = icmp eq i64 %indvars.iv.next, %wide.trip.count
  br i1 %exitcond.not, label %.loopexit, label %23, !llvm.loop !147

.loopexit:                                        ; preds = %38, %.preheader, %19
  ret void
}